target datalayout = "e-m:e-p270:32:32-p271:32:32-p272:64:64-i64:64-i128:128-f80:128-n8:16:32:64-S128"
target triple = "x86_64-pc-linux-gnu"

%"class.llvm::Value" = type { i8, i8, i16, i32, ptr, ptr }
%class.anon.224 = type { ptr }
%"class.llvm::Use" = type { ptr, ptr, ptr, ptr }

; Function Attrs: mustprogress nounwind uwtable
define linkonce_odr hidden noundef ptr @_ZN4llvm16cast_convert_valINS_5ValueEPS1_S2_E4doitEPKS1_(ptr noundef %0) #0 comdat align 2 {
  %2 = alloca ptr, align 8
  store ptr %0, ptr %2, align 8
  %3 = load ptr, ptr %2, align 8
  ret ptr %3
}

; Function Attrs: mustprogress nounwind uwtable
define linkonce_odr hidden noundef ptr @_ZN4llvm8CastInfoINS_5ValueEPS1_vE6doCastERKS2_(ptr noundef nonnull align 8 dereferenceable(8) %0) #0 comdat align 2 {
  %2 = alloca ptr, align 8
  store ptr %0, ptr %2, align 8
  %3 = load ptr, ptr %2, align 8
  %4 = load ptr, ptr %3, align 8
  %5 = call noundef ptr @_ZN4llvm16cast_convert_valINS_5ValueEPS1_S2_E4doitEPKS1_(ptr noundef %4)
  ret ptr %5
}

; Function Attrs: mustprogress nounwind uwtable
define linkonce_odr hidden noundef nonnull align 8 dereferenceable(8) ptr @_ZN4llvm14ValueIsPresentIPNS_5ValueEvE11unwrapValueERS2_(ptr noundef nonnull align 8 dereferenceable(8) %0) #0 comdat align 2 {
  %2 = alloca ptr, align 8
  store ptr %0, ptr %2, align 8
  %3 = load ptr, ptr %2, align 8
  ret ptr %3
}

; Function Attrs: mustprogress nounwind uwtable
define linkonce_odr hidden noundef zeroext i1 @_ZN4llvm14ValueIsPresentIPNS_5ValueEvE9isPresentERKS2_(ptr noundef nonnull align 8 dereferenceable(8) %0) #0 comdat align 2 {
  %2 = alloca ptr, align 8
  store ptr %0, ptr %2, align 8
  %3 = load ptr, ptr %2, align 8
  %4 = load ptr, ptr %3, align 8
  %5 = icmp ne ptr %4, null
  ret i1 %5
}

; Function Attrs: mustprogress nounwind uwtable
define linkonce_odr hidden noundef nonnull align 8 dereferenceable(8) ptr @_ZN4llvm13simplify_typeIPNS_5ValueEE18getSimplifiedValueERS2_(ptr noundef nonnull align 8 dereferenceable(8) %0) #0 comdat align 2 {
  %2 = alloca ptr, align 8
  store ptr %0, ptr %2, align 8
  %3 = load ptr, ptr %2, align 8
  ret ptr %3
}

; Function Attrs: mustprogress nounwind uwtable
define linkonce_odr hidden noundef ptr @_ZN4llvm4castINS_5ValueES1_EEDcPT0_(ptr noundef %0) #0 comdat {
  %2 = alloca ptr, align 8
  store ptr %0, ptr %2, align 8
  %3 = call noundef ptr @_ZN4llvm8CastInfoINS_5ValueEPS1_vE6doCastERKS2_(ptr noundef nonnull align 8 dereferenceable(8) %2)
  ret ptr %3
}

; Function Attrs: mustprogress nounwind uwtable
define linkonce_odr hidden noundef nonnull align 8 dereferenceable(8) ptr @_ZN4llvm6detail11unwrapValueIPNS_5ValueEEEDcRT_(ptr noundef nonnull align 8 dereferenceable(8) %0) #0 comdat {
  %2 = alloca ptr, align 8
  store ptr %0, ptr %2, align 8
  %3 = load ptr, ptr %2, align 8
  %4 = call noundef nonnull align 8 dereferenceable(8) ptr @_ZN4llvm14ValueIsPresentIPNS_5ValueEvE11unwrapValueERS2_(ptr noundef nonnull align 8 dereferenceable(8) %3)
  ret ptr %4
}

; Function Attrs: mustprogress nounwind uwtable
define linkonce_odr hidden noundef ptr @_ZN4llvm8CastInfoINS_5ValueEPS1_vE10castFailedEv() #0 comdat align 2 {
  ret ptr null
}

; Function Attrs: mustprogress nounwind uwtable
define linkonce_odr hidden noundef zeroext i1 @_ZN4llvm6detail9isPresentIPNS_5ValueEEEbRKT_(ptr noundef nonnull align 8 dereferenceable(8) %0) #0 comdat {
  %2 = alloca ptr, align 8
  store ptr %0, ptr %2, align 8
  %3 = load ptr, ptr %2, align 8
  %4 = call noundef nonnull align 8 dereferenceable(8) ptr @_ZN4llvm13simplify_typeIPNS_5ValueEE18getSimplifiedValueERS2_(ptr noundef nonnull align 8 dereferenceable(8) %3)
  %5 = call noundef zeroext i1 @_ZN4llvm14ValueIsPresentIPNS_5ValueEvE9isPresentERKS2_(ptr noundef nonnull align 8 dereferenceable(8) %4)
  ret i1 %5
}

; Function Attrs: mustprogress nounwind uwtable
define linkonce_odr hidden noundef i32 @_ZN4llvm17bitfields_details10CompressorIjLj5ELb1EE6unpackEj(i32 noundef %0) #0 comdat align 2 {
  %2 = alloca i32, align 4
  store i32 %0, ptr %2, align 4
  %3 = load i32, ptr %2, align 4
  ret i32 %3
}

; Function Attrs: mustprogress nounwind uwtable
define linkonce_odr hidden noundef ptr @_ZN4llvm15cast_if_presentINS_5ValueES1_EEDaPT0_(ptr noundef %0) #0 comdat {
  %2 = alloca ptr, align 8
  %3 = alloca ptr, align 8
  store ptr %0, ptr %3, align 8
  %4 = call noundef zeroext i1 @_ZN4llvm6detail9isPresentIPNS_5ValueEEEbRKT_(ptr noundef nonnull align 8 dereferenceable(8) %3)
  br i1 %4, label %7, label %5

5:                                                ; preds = %1
  %6 = call noundef ptr @_ZN4llvm8CastInfoINS_5ValueEPS1_vE10castFailedEv()
  store ptr %6, ptr %2, align 8
  br label %11

7:                                                ; preds = %1
  %8 = call noundef nonnull align 8 dereferenceable(8) ptr @_ZN4llvm6detail11unwrapValueIPNS_5ValueEEEDcRT_(ptr noundef nonnull align 8 dereferenceable(8) %3)
  %9 = load ptr, ptr %8, align 8
  %10 = call noundef ptr @_ZN4llvm4castINS_5ValueES1_EEDcPT0_(ptr noundef %9)
  store ptr %10, ptr %2, align 8
  br label %11

11:                                               ; preds = %7, %5
  %12 = load ptr, ptr %2, align 8
  ret ptr %12
}

; Function Attrs: mustprogress nounwind uwtable
define linkonce_odr hidden noundef i32 @_ZN4llvm17bitfields_details4ImplINS_8Bitfield7ElementINS_13AtomicRMWInst5BinOpELj4ELj5ELS5_16EEEtE7extractEt(i16 noundef zeroext %0) #0 comdat align 2 {
  %2 = alloca i16, align 2
  %3 = alloca i16, align 2
  store i16 %0, ptr %2, align 2
  %4 = load i16, ptr %2, align 2
  %5 = zext i16 %4 to i32
  %6 = and i32 %5, 496
  %7 = ashr i32 %6, 4
  %8 = trunc i32 %7 to i16
  store i16 %8, ptr %3, align 2
  %9 = load i16, ptr %3, align 2
  %10 = zext i16 %9 to i32
  %11 = call noundef i32 @_ZN4llvm17bitfields_details10CompressorIjLj5ELb1EE6unpackEj(i32 noundef %10)
  ret i32 %11
}

; Function Attrs: mustprogress nounwind uwtable
define linkonce_odr hidden noundef zeroext i16 @_ZNK4llvm5Value24getSubclassDataFromValueEv(ptr noundef nonnull align 8 dereferenceable(24) %0) #0 comdat align 2 {
  %2 = alloca ptr, align 8
  store ptr %0, ptr %2, align 8
  %3 = load ptr, ptr %2, align 8
  %4 = getelementptr inbounds nuw %"class.llvm::Value", ptr %3, i32 0, i32 2
  %5 = load i16, ptr %4, align 2
  ret i16 %5
}

; Function Attrs: mustprogress nounwind uwtable
define linkonce_odr noundef ptr @_ZN4llvm12cast_or_nullINS_5ValueES1_EEDaPT0_(ptr noundef %0) #0 comdat {
  %2 = alloca ptr, align 8
  store ptr %0, ptr %2, align 8
  %3 = load ptr, ptr %2, align 8
  %4 = call noundef ptr @_ZN4llvm15cast_if_presentINS_5ValueES1_EEDaPT0_(ptr noundef %3)
  ret ptr %4
}

; Function Attrs: mustprogress nounwind uwtable
define linkonce_odr hidden noundef ptr @_ZNK4llvm3Use3getEv(ptr noundef nonnull align 8 dereferenceable(32) %0) #0 comdat align 2 {
  %2 = alloca ptr, align 8
  store ptr %0, ptr %2, align 8
  %3 = load ptr, ptr %2, align 8
  %4 = getelementptr inbounds nuw %"class.llvm::Use", ptr %3, i32 0, i32 0
  %5 = load ptr, ptr %4, align 8
  ret ptr %5
}

; Function Attrs: mustprogress nounwind uwtable
define linkonce_odr hidden noundef ptr @_ZN4llvm21FixedNumOperandTraitsINS_13AtomicRMWInstELj2EE8op_beginEPS1_(ptr noundef %0) #0 comdat align 2 {
  %2 = alloca ptr, align 8
  store ptr %0, ptr %2, align 8
  %3 = load ptr, ptr %2, align 8
  %4 = getelementptr inbounds %"class.llvm::Use", ptr %3, i64 -2
  ret ptr %4
}

; Function Attrs: mustprogress nounwind uwtable
define linkonce_odr hidden noundef i32 @_ZN4llvm8Bitfield3getINS0_7ElementINS_13AtomicRMWInst5BinOpELj4ELj5ELS4_16EEEtEENT_4TypeET0_(i16 noundef zeroext %0) #0 comdat align 2 {
  %2 = alloca i16, align 2
  store i16 %0, ptr %2, align 2
  %3 = load i16, ptr %2, align 2
  %4 = call noundef i32 @_ZN4llvm17bitfields_details4ImplINS_8Bitfield7ElementINS_13AtomicRMWInst5BinOpELj4ELj5ELS5_16EEEtE7extractEt(i16 noundef zeroext %3)
  ret i32 %4
}

; Function Attrs: mustprogress nounwind uwtable
define linkonce_odr hidden noundef zeroext i16 @_ZNK4llvm11Instruction24getSubclassDataFromValueEv(ptr noundef nonnull align 8 dereferenceable(72) %0) #0 comdat align 2 {
  %2 = alloca ptr, align 8
  store ptr %0, ptr %2, align 8
  %3 = load ptr, ptr %2, align 8
  %4 = call noundef zeroext i16 @_ZNK4llvm5Value24getSubclassDataFromValueEv(ptr noundef nonnull align 8 dereferenceable(24) %3)
  ret i16 %4
}

; Function Attrs: mustprogress nounwind uwtable
define linkonce_odr hidden noundef ptr @_ZNK4llvm13AtomicRMWInst10getOperandEj(ptr noundef nonnull align 8 dereferenceable(73) %0, i32 noundef %1) #0 comdat align 2 {
  %3 = alloca ptr, align 8
  %4 = alloca i32, align 4
  store ptr %0, ptr %3, align 8
  store i32 %1, ptr %4, align 4
  %5 = load ptr, ptr %3, align 8
  %6 = call noundef ptr @_ZN4llvm21FixedNumOperandTraitsINS_13AtomicRMWInstELj2EE8op_beginEPS1_(ptr noundef %5)
  %7 = load i32, ptr %4, align 4
  %8 = zext i32 %7 to i64
  %9 = getelementptr inbounds %"class.llvm::Use", ptr %6, i64 %8
  %10 = call noundef ptr @_ZNK4llvm3Use3getEv(ptr noundef nonnull align 8 dereferenceable(32) %9)
  %11 = call noundef ptr @_ZN4llvm12cast_or_nullINS_5ValueES1_EEDaPT0_(ptr noundef %10)
  ret ptr %11
}

; Function Attrs: mustprogress nounwind uwtable
define linkonce_odr hidden noundef i32 @_ZNK4llvm11Instruction15getSubclassDataINS_8Bitfield7ElementINS_13AtomicRMWInst5BinOpELj4ELj5ELS5_16EEEEENT_4TypeEv(ptr noundef nonnull align 8 dereferenceable(72) %0) #0 comdat align 2 {
  %2 = alloca ptr, align 8
  store ptr %0, ptr %2, align 8
  %3 = load ptr, ptr %2, align 8
  %4 = call noundef zeroext i16 @_ZNK4llvm11Instruction24getSubclassDataFromValueEv(ptr noundef nonnull align 8 dereferenceable(72) %3)
  %5 = call noundef i32 @_ZN4llvm8Bitfield3getINS0_7ElementINS_13AtomicRMWInst5BinOpELj4ELj5ELS4_16EEEtEENT_4TypeET0_(i16 noundef zeroext %4)
  ret i32 %5
}

; Function Attrs: mustprogress nounwind uwtable
define linkonce_odr hidden noundef ptr @_ZN4llvm13AtomicRMWInst13getValOperandEv(ptr noundef nonnull align 8 dereferenceable(73) %0) #0 comdat align 2 {
  %2 = alloca ptr, align 8
  store ptr %0, ptr %2, align 8
  %3 = load ptr, ptr %2, align 8
  %4 = call noundef ptr @_ZNK4llvm13AtomicRMWInst10getOperandEj(ptr noundef nonnull align 8 dereferenceable(73) %3, i32 noundef 1)
  ret ptr %4
}

; Function Attrs: mustprogress nounwind uwtable
define linkonce_odr hidden noundef i32 @_ZNK4llvm13AtomicRMWInst12getOperationEv(ptr noundef nonnull align 8 dereferenceable(73) %0) #0 comdat align 2 {
  %2 = alloca ptr, align 8
  store ptr %0, ptr %2, align 8
  %3 = load ptr, ptr %2, align 8
  %4 = call noundef i32 @_ZNK4llvm11Instruction15getSubclassDataINS_8Bitfield7ElementINS_13AtomicRMWInst5BinOpELj4ELj5ELS5_16EEEEENT_4TypeEv(ptr noundef nonnull align 8 dereferenceable(72) %3)
  ret i32 %4
}

; Function Attrs: mustprogress nounwind uwtable
define internal noundef ptr @"_ZZN12_GLOBAL__N_116AtomicExpandImpl18tryExpandAtomicRMWEPN4llvm13AtomicRMWInstEENK3$_0clERNS1_13IRBuilderBaseEPNS1_5ValueE"(ptr noundef nonnull align 8 dereferenceable(8) %0, ptr noundef nonnull align 8 dereferenceable(128) %1, ptr noundef %2) #0 align 2 {
  %4 = alloca ptr, align 8
  %5 = alloca ptr, align 8
  %6 = alloca ptr, align 8
  store ptr %0, ptr %4, align 8
  store ptr %1, ptr %5, align 8
  store ptr %2, ptr %6, align 8
  %7 = load ptr, ptr %4, align 8
  %8 = getelementptr inbounds nuw %class.anon.224, ptr %7, i32 0, i32 0
  %9 = load ptr, ptr %8, align 8
  %10 = load ptr, ptr %9, align 8
  %11 = call noundef i32 @_ZNK4llvm13AtomicRMWInst12getOperationEv(ptr noundef nonnull align 8 dereferenceable(73) %10)
  %12 = load ptr, ptr %5, align 8
  %13 = load ptr, ptr %6, align 8
  %14 = getelementptr inbounds nuw %class.anon.224, ptr %7, i32 0, i32 0
  %15 = load ptr, ptr %14, align 8
  %16 = load ptr, ptr %15, align 8
  %17 = call noundef ptr @_ZN4llvm13AtomicRMWInst13getValOperandEv(ptr noundef nonnull align 8 dereferenceable(73) %16)
  %18 = call noundef ptr @_ZN4llvm19buildAtomicRMWValueENS_13AtomicRMWInst5BinOpERNS_13IRBuilderBaseEPNS_5ValueES5_(i32 noundef %11, ptr noundef nonnull align 8 dereferenceable(128) %12, ptr noundef %13, ptr noundef %17)
  ret ptr %18
}

; Function Attrs: mustprogress nounwind uwtable
define internal noundef ptr @"_ZN4llvm12function_refIFPNS_5ValueERNS_13IRBuilderBaseES2_EE11callback_fnIZN12_GLOBAL__N_116AtomicExpandImpl18tryExpandAtomicRMWEPNS_13AtomicRMWInstEE3$_0EES2_lS4_S2_"(i64 noundef %0, ptr noundef nonnull align 8 dereferenceable(128) %1, ptr noundef %2) #0 align 2 {
  %4 = alloca i64, align 8
  %5 = alloca ptr, align 8
  %6 = alloca ptr, align 8
  store i64 %0, ptr %4, align 8
  store ptr %1, ptr %5, align 8
  store ptr %2, ptr %6, align 8
  %7 = load i64, ptr %4, align 8
  %8 = inttoptr i64 %7 to ptr
  %9 = load ptr, ptr %5, align 8
  %10 = load ptr, ptr %6, align 8
  %11 = call noundef ptr @"_ZZN12_GLOBAL__N_116AtomicExpandImpl18tryExpandAtomicRMWEPN4llvm13AtomicRMWInstEENK3$_0clERNS1_13IRBuilderBaseEPNS1_5ValueE"(ptr noundef nonnull align 8 dereferenceable(8) %8, ptr noundef nonnull align 8 dereferenceable(128) %9, ptr noundef %10)
  ret ptr %11
}